target datalayout = "e-m:e-p270:32:32-p271:32:32-p272:64:64-i64:64-i128:128-f80:128-n8:16:32:64-S128"
target triple = "x86_64-pc-linux-gnu"

%struct.pmix_class_t = type { ptr, ptr, ptr, ptr, i32, i32, ptr, ptr, i64 }
%struct.pmix_tma = type { ptr, ptr, ptr, ptr, ptr, ptr, ptr, ptr }
%union.pthread_mutex_t = type { %struct.__pthread_mutex_s }
%struct.__pthread_mutex_s = type { i32, i32, i32, i32, i32, i16, i16, %struct.__pthread_internal_list }
%struct.__pthread_internal_list = type { ptr, ptr }
%union.pthread_cond_t = type { %struct.__pthread_cond_s }
%struct.__pthread_cond_s = type { %union.__atomic_wide_counter, %union.__atomic_wide_counter, [2 x i32], [2 x i32], i32, i32, [2 x i32] }
%union.__atomic_wide_counter = type { i64 }
%struct.pmix_object_t = type { %union.pthread_mutex_t, ptr, i32, %struct.pmix_tma }
%struct.timeval = type { i64, i64 }
%struct.pmix_list_t = type { %struct.pmix_object_t, %struct.pmix_list_item_t, i64 }
%struct.pmix_list_item_t = type { %struct.pmix_object_t, ptr, ptr, i32 }
%struct.pmix_name_t = type { ptr, i32 }
%struct.event = type { %struct.event_callback, %union.anon.3, i32, ptr, %union.anon.5, i16, i16, %struct.timeval }
%struct.event_callback = type { %struct.anon.1, i16, i8, i8, %union.anon.2, ptr }
%struct.anon.1 = type { ptr, ptr }
%union.anon.2 = type { ptr }
%union.anon.3 = type { %struct.anon.4 }
%struct.anon.4 = type { ptr, ptr }
%union.anon.5 = type { %struct.anon.6 }
%struct.anon.6 = type { %struct.anon.7, %struct.timeval }
%struct.anon.7 = type { ptr, ptr }
%struct.pmix_lock_t = type { i32, %struct.pmix_mutex_t, %union.pthread_cond_t, i8 }
%struct.pmix_mutex_t = type { %struct.pmix_object_t, %union.pthread_mutex_t }
%struct.pmix_cb_t = type { %struct.pmix_list_item_t, %struct.event, %struct.pmix_lock_t, i8, i32, i32, i8, %struct.pmix_buffer_t, %union.anon.11, i64, ptr, %struct.pmix_name_t, ptr, ptr, ptr, ptr, i64, ptr, i64, ptr, i8, i64, %struct.pmix_list_t, i8, ptr, i8, ptr, ptr }
%struct.pmix_buffer_t = type { %struct.pmix_object_t, i8, ptr, ptr, ptr, i64, i64 }
%union.anon.11 = type { ptr }

@pmix_mutex_t_class = external global %struct.pmix_class_t, align 8
@pmix_class_init_epoch = external global i32, align 4
@pmix_list_t_class = external global %struct.pmix_class_t, align 8
@pmix_buffer_t_class = external global %struct.pmix_class_t, align 8

; Function Attrs: inlinehint nounwind uwtable
define internal void @pmix_obj_run_constructors(ptr noundef %0) #2 {
  %2 = alloca ptr, align 8
  %3 = alloca ptr, align 8
  store ptr %0, ptr %2, align 8, !tbaa !20
  call void @llvm.lifetime.start.p0(i64 8, ptr %3) #13
  %4 = load ptr, ptr %2, align 8, !tbaa !20
  %5 = getelementptr inbounds nuw %struct.pmix_object_t, ptr %4, i32 0, i32 1
  %6 = load ptr, ptr %5, align 8, !tbaa !14
  %7 = getelementptr inbounds nuw %struct.pmix_class_t, ptr %6, i32 0, i32 6
  %8 = load ptr, ptr %7, align 8, !tbaa !303
  store ptr %8, ptr %3, align 8, !tbaa !3
  br label %9

9:                                                ; preds = %13, %1
  %10 = load ptr, ptr %3, align 8, !tbaa !3
  %11 = load ptr, ptr %10, align 8, !tbaa !3
  %12 = icmp ne ptr null, %11
  br i1 %12, label %13, label %19

13:                                               ; preds = %9
  %14 = load ptr, ptr %3, align 8, !tbaa !3
  %15 = load ptr, ptr %14, align 8, !tbaa !3
  %16 = load ptr, ptr %2, align 8, !tbaa !20
  call void %15(ptr noundef %16)
  %17 = load ptr, ptr %3, align 8, !tbaa !3
  %18 = getelementptr inbounds nuw ptr, ptr %17, i32 1
  store ptr %18, ptr %3, align 8, !tbaa !3
  br label %9, !llvm.loop !304

19:                                               ; preds = %9
  call void @llvm.lifetime.end.p0(i64 8, ptr %3) #13
  ret void
}

; Function Attrs: inlinehint nounwind uwtable
define internal void @pmix_obj_construct_tma(ptr noundef %0, ptr noundef %1) #2 {
  %3 = alloca ptr, align 8
  %4 = alloca ptr, align 8
  store ptr %0, ptr %3, align 8, !tbaa !20
  store ptr %1, ptr %4, align 8, !tbaa !58
  %5 = load ptr, ptr %4, align 8, !tbaa !58
  %6 = icmp eq ptr null, %5
  br i1 %6, label %7, label %32

7:                                                ; preds = %2
  %8 = load ptr, ptr %3, align 8, !tbaa !20
  %9 = getelementptr inbounds nuw %struct.pmix_object_t, ptr %8, i32 0, i32 3
  %10 = getelementptr inbounds nuw %struct.pmix_tma, ptr %9, i32 0, i32 0
  store ptr null, ptr %10, align 8, !tbaa !295
  %11 = load ptr, ptr %3, align 8, !tbaa !20
  %12 = getelementptr inbounds nuw %struct.pmix_object_t, ptr %11, i32 0, i32 3
  %13 = getelementptr inbounds nuw %struct.pmix_tma, ptr %12, i32 0, i32 1
  store ptr null, ptr %13, align 8, !tbaa !296
  %14 = load ptr, ptr %3, align 8, !tbaa !20
  %15 = getelementptr inbounds nuw %struct.pmix_object_t, ptr %14, i32 0, i32 3
  %16 = getelementptr inbounds nuw %struct.pmix_tma, ptr %15, i32 0, i32 2
  store ptr null, ptr %16, align 8, !tbaa !297
  %17 = load ptr, ptr %3, align 8, !tbaa !20
  %18 = getelementptr inbounds nuw %struct.pmix_object_t, ptr %17, i32 0, i32 3
  %19 = getelementptr inbounds nuw %struct.pmix_tma, ptr %18, i32 0, i32 3
  store ptr null, ptr %19, align 8, !tbaa !298
  %20 = load ptr, ptr %3, align 8, !tbaa !20
  %21 = getelementptr inbounds nuw %struct.pmix_object_t, ptr %20, i32 0, i32 3
  %22 = getelementptr inbounds nuw %struct.pmix_tma, ptr %21, i32 0, i32 4
  store ptr null, ptr %22, align 8, !tbaa !299
  %23 = load ptr, ptr %3, align 8, !tbaa !20
  %24 = getelementptr inbounds nuw %struct.pmix_object_t, ptr %23, i32 0, i32 3
  %25 = getelementptr inbounds nuw %struct.pmix_tma, ptr %24, i32 0, i32 5
  store ptr null, ptr %25, align 8, !tbaa !22
  %26 = load ptr, ptr %3, align 8, !tbaa !20
  %27 = getelementptr inbounds nuw %struct.pmix_object_t, ptr %26, i32 0, i32 3
  %28 = getelementptr inbounds nuw %struct.pmix_tma, ptr %27, i32 0, i32 6
  store ptr null, ptr %28, align 8, !tbaa !300
  %29 = load ptr, ptr %3, align 8, !tbaa !20
  %30 = getelementptr inbounds nuw %struct.pmix_object_t, ptr %29, i32 0, i32 3
  %31 = getelementptr inbounds nuw %struct.pmix_tma, ptr %30, i32 0, i32 7
  store ptr null, ptr %31, align 8, !tbaa !301
  br label %36

32:                                               ; preds = %2
  %33 = load ptr, ptr %3, align 8, !tbaa !20
  %34 = getelementptr inbounds nuw %struct.pmix_object_t, ptr %33, i32 0, i32 3
  %35 = load ptr, ptr %4, align 8, !tbaa !58
  call void @llvm.memcpy.p0.p0.i64(ptr align 8 %34, ptr align 8 %35, i64 64, i1 false), !tbaa.struct !302
  br label %36

36:                                               ; preds = %32, %7
  ret void
}

; Function Attrs: nounwind uwtable
define internal void @cbcon(ptr noundef %0) #0 {
  %2 = alloca ptr, align 8
  store ptr %0, ptr %2, align 8, !tbaa !3
  br label %3

3:                                                ; preds = %1
  br label %4

4:                                                ; preds = %3
  br label %5

5:                                                ; preds = %4
  br label %6

6:                                                ; preds = %5
  %7 = load i32, ptr @pmix_class_init_epoch, align 4, !tbaa !7
  %8 = load i32, ptr getelementptr inbounds nuw (%struct.pmix_class_t, ptr @pmix_mutex_t_class, i32 0, i32 4), align 8, !tbaa !9
  %9 = icmp ne i32 %7, %8
  br i1 %9, label %10, label %11

10:                                               ; preds = %6
  call void @pmix_class_initialize(ptr noundef @pmix_mutex_t_class)
  br label %11

11:                                               ; preds = %10, %6
  %12 = load ptr, ptr %2, align 8, !tbaa !3
  %13 = getelementptr inbounds nuw %struct.pmix_cb_t, ptr %12, i32 0, i32 2
  %14 = getelementptr inbounds nuw %struct.pmix_lock_t, ptr %13, i32 0, i32 1
  %15 = getelementptr inbounds nuw %struct.pmix_object_t, ptr %14, i32 0, i32 1
  store ptr @pmix_mutex_t_class, ptr %15, align 8, !tbaa !14
  %16 = load ptr, ptr %2, align 8, !tbaa !3
  %17 = getelementptr inbounds nuw %struct.pmix_cb_t, ptr %16, i32 0, i32 2
  %18 = getelementptr inbounds nuw %struct.pmix_lock_t, ptr %17, i32 0, i32 1
  %19 = getelementptr inbounds nuw %struct.pmix_object_t, ptr %18, i32 0, i32 2
  store i32 1, ptr %19, align 8, !tbaa !17
  %20 = load ptr, ptr %2, align 8, !tbaa !3
  %21 = getelementptr inbounds nuw %struct.pmix_cb_t, ptr %20, i32 0, i32 2
  %22 = getelementptr inbounds nuw %struct.pmix_lock_t, ptr %21, i32 0, i32 1
  call void @pmix_obj_construct_tma(ptr noundef %22, ptr noundef null)
  %23 = load ptr, ptr %2, align 8, !tbaa !3
  %24 = getelementptr inbounds nuw %struct.pmix_cb_t, ptr %23, i32 0, i32 2
  %25 = getelementptr inbounds nuw %struct.pmix_lock_t, ptr %24, i32 0, i32 1
  call void @pmix_obj_run_constructors(ptr noundef %25)
  br label %26

26:                                               ; preds = %11
  br label %27

27:                                               ; preds = %26
  br label %28

28:                                               ; preds = %27
  %29 = load ptr, ptr %2, align 8, !tbaa !3
  %30 = getelementptr inbounds nuw %struct.pmix_cb_t, ptr %29, i32 0, i32 2
  %31 = getelementptr inbounds nuw %struct.pmix_lock_t, ptr %30, i32 0, i32 2
  %32 = call i32 @pthread_cond_init(ptr noundef %31, ptr noundef null) #13
  %33 = load ptr, ptr %2, align 8, !tbaa !3
  %34 = getelementptr inbounds nuw %struct.pmix_cb_t, ptr %33, i32 0, i32 2
  %35 = getelementptr inbounds nuw %struct.pmix_lock_t, ptr %34, i32 0, i32 3
  store volatile i8 1, ptr %35, align 8, !tbaa !181
  br label %36

36:                                               ; preds = %28
  %37 = load ptr, ptr %2, align 8, !tbaa !3
  %38 = getelementptr inbounds nuw %struct.pmix_cb_t, ptr %37, i32 0, i32 3
  store i8 0, ptr %38, align 8, !tbaa !186
  br label %39

39:                                               ; preds = %36
  br label %40

40:                                               ; preds = %39
  br label %41

41:                                               ; preds = %40
  %42 = load i32, ptr @pmix_class_init_epoch, align 4, !tbaa !7
  %43 = load i32, ptr getelementptr inbounds nuw (%struct.pmix_class_t, ptr @pmix_buffer_t_class, i32 0, i32 4), align 8, !tbaa !9
  %44 = icmp ne i32 %42, %43
  br i1 %44, label %45, label %46

45:                                               ; preds = %41
  call void @pmix_class_initialize(ptr noundef @pmix_buffer_t_class)
  br label %46

46:                                               ; preds = %45, %41
  %47 = load ptr, ptr %2, align 8, !tbaa !3
  %48 = getelementptr inbounds nuw %struct.pmix_cb_t, ptr %47, i32 0, i32 7
  %49 = getelementptr inbounds nuw %struct.pmix_object_t, ptr %48, i32 0, i32 1
  store ptr @pmix_buffer_t_class, ptr %49, align 8, !tbaa !14
  %50 = load ptr, ptr %2, align 8, !tbaa !3
  %51 = getelementptr inbounds nuw %struct.pmix_cb_t, ptr %50, i32 0, i32 7
  %52 = getelementptr inbounds nuw %struct.pmix_object_t, ptr %51, i32 0, i32 2
  store i32 1, ptr %52, align 8, !tbaa !17
  %53 = load ptr, ptr %2, align 8, !tbaa !3
  %54 = getelementptr inbounds nuw %struct.pmix_cb_t, ptr %53, i32 0, i32 7
  call void @pmix_obj_construct_tma(ptr noundef %54, ptr noundef null)
  %55 = load ptr, ptr %2, align 8, !tbaa !3
  %56 = getelementptr inbounds nuw %struct.pmix_cb_t, ptr %55, i32 0, i32 7
  call void @pmix_obj_run_constructors(ptr noundef %56)
  br label %57

57:                                               ; preds = %46
  br label %58

58:                                               ; preds = %57
  br label %59

59:                                               ; preds = %58
  %60 = load ptr, ptr %2, align 8, !tbaa !3
  %61 = getelementptr inbounds nuw %struct.pmix_cb_t, ptr %60, i32 0, i32 8
  store ptr null, ptr %61, align 8, !tbaa !159
  %62 = load ptr, ptr %2, align 8, !tbaa !3
  %63 = getelementptr inbounds nuw %struct.pmix_cb_t, ptr %62, i32 0, i32 10
  store ptr null, ptr %63, align 8, !tbaa !187
  %64 = load ptr, ptr %2, align 8, !tbaa !3
  %65 = getelementptr inbounds nuw %struct.pmix_cb_t, ptr %64, i32 0, i32 11
  %66 = getelementptr inbounds nuw %struct.pmix_name_t, ptr %65, i32 0, i32 0
  store ptr null, ptr %66, align 8, !tbaa !188
  %67 = load ptr, ptr %2, align 8, !tbaa !3
  %68 = getelementptr inbounds nuw %struct.pmix_cb_t, ptr %67, i32 0, i32 11
  %69 = getelementptr inbounds nuw %struct.pmix_name_t, ptr %68, i32 0, i32 1
  store i32 -1, ptr %69, align 8, !tbaa !189
  %70 = load ptr, ptr %2, align 8, !tbaa !3
  %71 = getelementptr inbounds nuw %struct.pmix_cb_t, ptr %70, i32 0, i32 6
  store i8 0, ptr %71, align 4, !tbaa !190
  %72 = load ptr, ptr %2, align 8, !tbaa !3
  %73 = getelementptr inbounds nuw %struct.pmix_cb_t, ptr %72, i32 0, i32 12
  store ptr null, ptr %73, align 8, !tbaa !191
  %74 = load ptr, ptr %2, align 8, !tbaa !3
  %75 = getelementptr inbounds nuw %struct.pmix_cb_t, ptr %74, i32 0, i32 13
  store ptr null, ptr %75, align 8, !tbaa !192
  %76 = load ptr, ptr %2, align 8, !tbaa !3
  %77 = getelementptr inbounds nuw %struct.pmix_cb_t, ptr %76, i32 0, i32 15
  store ptr null, ptr %77, align 8, !tbaa !193
  %78 = load ptr, ptr %2, align 8, !tbaa !3
  %79 = getelementptr inbounds nuw %struct.pmix_cb_t, ptr %78, i32 0, i32 16
  store i64 0, ptr %79, align 8, !tbaa !194
  %80 = load ptr, ptr %2, align 8, !tbaa !3
  %81 = getelementptr inbounds nuw %struct.pmix_cb_t, ptr %80, i32 0, i32 17
  store ptr null, ptr %81, align 8, !tbaa !195
  %82 = load ptr, ptr %2, align 8, !tbaa !3
  %83 = getelementptr inbounds nuw %struct.pmix_cb_t, ptr %82, i32 0, i32 18
  store i64 0, ptr %83, align 8, !tbaa !196
  %84 = load ptr, ptr %2, align 8, !tbaa !3
  %85 = getelementptr inbounds nuw %struct.pmix_cb_t, ptr %84, i32 0, i32 19
  store ptr null, ptr %85, align 8, !tbaa !197
  %86 = load ptr, ptr %2, align 8, !tbaa !3
  %87 = getelementptr inbounds nuw %struct.pmix_cb_t, ptr %86, i32 0, i32 20
  store i8 0, ptr %87, align 8, !tbaa !198
  %88 = load ptr, ptr %2, align 8, !tbaa !3
  %89 = getelementptr inbounds nuw %struct.pmix_cb_t, ptr %88, i32 0, i32 21
  store i64 0, ptr %89, align 8, !tbaa !199
  br label %90

90:                                               ; preds = %59
  br label %91

91:                                               ; preds = %90
  br label %92

92:                                               ; preds = %91
  %93 = load i32, ptr @pmix_class_init_epoch, align 4, !tbaa !7
  %94 = load i32, ptr getelementptr inbounds nuw (%struct.pmix_class_t, ptr @pmix_list_t_class, i32 0, i32 4), align 8, !tbaa !9
  %95 = icmp ne i32 %93, %94
  br i1 %95, label %96, label %97

96:                                               ; preds = %92
  call void @pmix_class_initialize(ptr noundef @pmix_list_t_class)
  br label %97

97:                                               ; preds = %96, %92
  %98 = load ptr, ptr %2, align 8, !tbaa !3
  %99 = getelementptr inbounds nuw %struct.pmix_cb_t, ptr %98, i32 0, i32 22
  %100 = getelementptr inbounds nuw %struct.pmix_object_t, ptr %99, i32 0, i32 1
  store ptr @pmix_list_t_class, ptr %100, align 8, !tbaa !14
  %101 = load ptr, ptr %2, align 8, !tbaa !3
  %102 = getelementptr inbounds nuw %struct.pmix_cb_t, ptr %101, i32 0, i32 22
  %103 = getelementptr inbounds nuw %struct.pmix_object_t, ptr %102, i32 0, i32 2
  store i32 1, ptr %103, align 8, !tbaa !17
  %104 = load ptr, ptr %2, align 8, !tbaa !3
  %105 = getelementptr inbounds nuw %struct.pmix_cb_t, ptr %104, i32 0, i32 22
  call void @pmix_obj_construct_tma(ptr noundef %105, ptr noundef null)
  %106 = load ptr, ptr %2, align 8, !tbaa !3
  %107 = getelementptr inbounds nuw %struct.pmix_cb_t, ptr %106, i32 0, i32 22
  call void @pmix_obj_run_constructors(ptr noundef %107)
  br label %108

108:                                              ; preds = %97
  br label %109

109:                                              ; preds = %108
  br label %110

110:                                              ; preds = %109
  %111 = load ptr, ptr %2, align 8, !tbaa !3
  %112 = getelementptr inbounds nuw %struct.pmix_cb_t, ptr %111, i32 0, i32 23
  store i8 0, ptr %112, align 8, !tbaa !200
  %113 = load ptr, ptr %2, align 8, !tbaa !3
  %114 = getelementptr inbounds nuw %struct.pmix_cb_t, ptr %113, i32 0, i32 24
  store ptr null, ptr %114, align 8, !tbaa !201
  %115 = load ptr, ptr %2, align 8, !tbaa !3
  %116 = getelementptr inbounds nuw %struct.pmix_cb_t, ptr %115, i32 0, i32 25
  store i8 0, ptr %116, align 8, !tbaa !202
  %117 = load ptr, ptr %2, align 8, !tbaa !3
  %118 = getelementptr inbounds nuw %struct.pmix_cb_t, ptr %117, i32 0, i32 26
  store ptr null, ptr %118, align 8, !tbaa !203
  %119 = load ptr, ptr %2, align 8, !tbaa !3
  %120 = getelementptr inbounds nuw %struct.pmix_cb_t, ptr %119, i32 0, i32 27
  store ptr null, ptr %120, align 8, !tbaa !204
  ret void
}