; Function Attrs: nounwind uwtable
define internal void @cbcon(ptr noundef initializes((320, 332), (336, 400)) %0) #0 {
  %2 = load i32, ptr @pmix_class_init_epoch, align 4, !tbaa !3
  %3 = load i32, ptr getelementptr inbounds nuw (i8, ptr @pmix_mutex_t_class, i64 32), align 8, !tbaa !7
  %.not = icmp eq i32 %2, %3
  br i1 %.not, label %5, label %4

4:                                                ; preds = %1
  tail call void @pmix_class_initialize(ptr noundef nonnull @pmix_mutex_t_class) #15
  br label %5

5:                                                ; preds = %4, %1
  %6 = getelementptr inbounds nuw i8, ptr %0, i64 280
  %7 = getelementptr inbounds nuw i8, ptr %0, i64 320
  store ptr @pmix_mutex_t_class, ptr %7, align 8, !tbaa !13
  %8 = getelementptr inbounds nuw i8, ptr %0, i64 328
  store i32 1, ptr %8, align 8, !tbaa !16
  %9 = getelementptr inbounds nuw i8, ptr %0, i64 336
  tail call void @llvm.memset.p0.i64(ptr noundef nonnull align 8 dereferenceable(64) %9, i8 0, i64 64, i1 false)
  %10 = load ptr, ptr getelementptr inbounds nuw (i8, ptr @pmix_mutex_t_class, i64 40), align 8, !tbaa !17
  %11 = load ptr, ptr %10, align 8, !tbaa !18
  %.not6.i = icmp eq ptr %11, null
  br i1 %.not6.i, label %pmix_obj_run_constructors.exit, label %.lr.ph.i

.lr.ph.i:                                         ; preds = %5, %.lr.ph.i
  %12 = phi ptr [ %14, %.lr.ph.i ], [ %11, %5 ]
  %.07.i = phi ptr [ %13, %.lr.ph.i ], [ %10, %5 ]
  tail call void %12(ptr noundef nonnull %6) #15
  %13 = getelementptr inbounds nuw i8, ptr %.07.i, i64 8
  %14 = load ptr, ptr %13, align 8, !tbaa !18
  %.not.i = icmp eq ptr %14, null
  br i1 %.not.i, label %pmix_obj_run_constructors.exit, label %.lr.ph.i, !llvm.loop !19

pmix_obj_run_constructors.exit:                   ; preds = %.lr.ph.i, %5
  %15 = getelementptr inbounds nuw i8, ptr %0, i64 440
  %16 = tail call i32 @pthread_cond_init(ptr noundef nonnull %15, ptr noundef null) #15
  %17 = getelementptr inbounds nuw i8, ptr %0, i64 488
  store volatile i8 1, ptr %17, align 8, !tbaa !152
  %18 = getelementptr inbounds nuw i8, ptr %0, i64 496
  store i8 0, ptr %18, align 8, !tbaa !157
  %19 = load i32, ptr @pmix_class_init_epoch, align 4, !tbaa !3
  %20 = load i32, ptr getelementptr inbounds nuw (i8, ptr @pmix_buffer_t_class, i64 32), align 8, !tbaa !7
  %.not34 = icmp eq i32 %19, %20
  br i1 %.not34, label %22, label %21

21:                                               ; preds = %pmix_obj_run_constructors.exit
  tail call void @pmix_class_initialize(ptr noundef nonnull @pmix_buffer_t_class) #15
  br label %22

22:                                               ; preds = %21, %pmix_obj_run_constructors.exit
  %23 = getelementptr inbounds nuw i8, ptr %0, i64 512
  %24 = getelementptr inbounds nuw i8, ptr %0, i64 552
  store ptr @pmix_buffer_t_class, ptr %24, align 8, !tbaa !13
  %25 = getelementptr inbounds nuw i8, ptr %0, i64 560
  store i32 1, ptr %25, align 8, !tbaa !16
  %26 = getelementptr inbounds nuw i8, ptr %0, i64 568
  tail call void @llvm.memset.p0.i64(ptr noundef nonnull align 8 dereferenceable(64) %26, i8 0, i64 64, i1 false)
  %27 = load ptr, ptr getelementptr inbounds nuw (i8, ptr @pmix_buffer_t_class, i64 40), align 8, !tbaa !17
  %28 = load ptr, ptr %27, align 8, !tbaa !18
  %.not6.i36 = icmp eq ptr %28, null
  br i1 %.not6.i36, label %pmix_obj_run_constructors.exit40, label %.lr.ph.i37

.lr.ph.i37:                                       ; preds = %22, %.lr.ph.i37
  %29 = phi ptr [ %31, %.lr.ph.i37 ], [ %28, %22 ]
  %.07.i38 = phi ptr [ %30, %.lr.ph.i37 ], [ %27, %22 ]
  tail call void %29(ptr noundef nonnull %23) #15
  %30 = getelementptr inbounds nuw i8, ptr %.07.i38, i64 8
  %31 = load ptr, ptr %30, align 8, !tbaa !18
  %.not.i39 = icmp eq ptr %31, null
  br i1 %.not.i39, label %pmix_obj_run_constructors.exit40, label %.lr.ph.i37, !llvm.loop !19

pmix_obj_run_constructors.exit40:                 ; preds = %.lr.ph.i37, %22
  %32 = getelementptr inbounds nuw i8, ptr %0, i64 680
  store ptr null, ptr %32, align 8, !tbaa !158
  %33 = getelementptr inbounds nuw i8, ptr %0, i64 696
  %34 = getelementptr inbounds nuw i8, ptr %0, i64 712
  tail call void @llvm.memset.p0.i64(ptr noundef nonnull align 8 dereferenceable(16) %33, i8 0, i64 16, i1 false)
  store i32 -1, ptr %34, align 8, !tbaa !159
  %35 = getelementptr inbounds nuw i8, ptr %0, i64 508
  store i8 0, ptr %35, align 4, !tbaa !160
  %36 = getelementptr inbounds nuw i8, ptr %0, i64 720
  %37 = getelementptr inbounds nuw i8, ptr %0, i64 744
  %38 = getelementptr inbounds nuw i8, ptr %0, i64 792
  store i64 0, ptr %38, align 8, !tbaa !161
  tail call void @llvm.memset.p0.i64(ptr noundef nonnull align 8 dereferenceable(16) %36, i8 0, i64 16, i1 false)
  tail call void @llvm.memset.p0.i64(ptr noundef nonnull align 8 dereferenceable(41) %37, i8 0, i64 41, i1 false)
  %39 = load i32, ptr @pmix_class_init_epoch, align 4, !tbaa !3
  %40 = load i32, ptr getelementptr inbounds nuw (i8, ptr @pmix_list_t_class, i64 32), align 8, !tbaa !7
  %.not35 = icmp eq i32 %39, %40
  br i1 %.not35, label %42, label %41

41:                                               ; preds = %pmix_obj_run_constructors.exit40
  tail call void @pmix_class_initialize(ptr noundef nonnull @pmix_list_t_class) #15
  br label %42

42:                                               ; preds = %41, %pmix_obj_run_constructors.exit40
  %43 = getelementptr inbounds nuw i8, ptr %0, i64 800
  %44 = getelementptr inbounds nuw i8, ptr %0, i64 840
  store ptr @pmix_list_t_class, ptr %44, align 8, !tbaa !13
  %45 = getelementptr inbounds nuw i8, ptr %0, i64 848
  store i32 1, ptr %45, align 8, !tbaa !16
  %46 = getelementptr inbounds nuw i8, ptr %0, i64 856
  tail call void @llvm.memset.p0.i64(ptr noundef nonnull align 8 dereferenceable(64) %46, i8 0, i64 64, i1 false)
  %47 = load ptr, ptr getelementptr inbounds nuw (i8, ptr @pmix_list_t_class, i64 40), align 8, !tbaa !17
  %48 = load ptr, ptr %47, align 8, !tbaa !18
  %.not6.i41 = icmp eq ptr %48, null
  br i1 %.not6.i41, label %pmix_obj_run_constructors.exit45, label %.lr.ph.i42

.lr.ph.i42:                                       ; preds = %42, %.lr.ph.i42
  %49 = phi ptr [ %51, %.lr.ph.i42 ], [ %48, %42 ]
  %.07.i43 = phi ptr [ %50, %.lr.ph.i42 ], [ %47, %42 ]
  tail call void %49(ptr noundef nonnull %43) #15
  %50 = getelementptr inbounds nuw i8, ptr %.07.i43, i64 8
  %51 = load ptr, ptr %50, align 8, !tbaa !18
  %.not.i44 = icmp eq ptr %51, null
  br i1 %.not.i44, label %pmix_obj_run_constructors.exit45, label %.lr.ph.i42, !llvm.loop !19

pmix_obj_run_constructors.exit45:                 ; preds = %.lr.ph.i42, %42
  %52 = getelementptr inbounds nuw i8, ptr %0, i64 1072
  store i8 0, ptr %52, align 8, !tbaa !162
  %53 = getelementptr inbounds nuw i8, ptr %0, i64 1080
  store ptr null, ptr %53, align 8, !tbaa !163
  %54 = getelementptr inbounds nuw i8, ptr %0, i64 1088
  store i8 0, ptr %54, align 8, !tbaa !164
  %55 = getelementptr inbounds nuw i8, ptr %0, i64 1096
  tail call void @llvm.memset.p0.i64(ptr noundef nonnull align 8 dereferenceable(16) %55, i8 0, i64 16, i1 false)
  ret void
}